target datalayout = "e-m:e-p270:32:32-p271:32:32-p272:64:64-i64:64-i128:128-f80:128-n8:16:32:64-S128"
target triple = "x86_64-pc-linux-gnu"

%"class.Ipopt::PDPerturbationHandler" = type <{ %"class.Ipopt::AlgorithmStrategyObject.base", [7 x i8], double, double, double, double, double, double, double, double, i8, [3 x i8], i32, i32, i32, i32, [4 x i8], double, double, double, double, double, double, double, double, i8, [3 x i8], i32, i8, [7 x i8] }>
%"class.Ipopt::AlgorithmStrategyObject.base" = type <{ %"class.Ipopt::ReferencedObject.base", [4 x i8], %"class.Ipopt::SmartPtr", %"class.Ipopt::SmartPtr.0", %"class.Ipopt::SmartPtr.1", %"class.Ipopt::SmartPtr.2", i8 }>
%"class.Ipopt::ReferencedObject.base" = type <{ ptr, i32 }>
%"class.Ipopt::SmartPtr" = type { ptr }
%"class.Ipopt::SmartPtr.0" = type { ptr }
%"class.Ipopt::SmartPtr.1" = type { ptr }
%"class.Ipopt::SmartPtr.2" = type { ptr }

; Function Attrs: mustprogress nounwind uwtable
define void @_ZN5Ipopt21PDPerturbationHandler19CurrentPerturbationERdS1_S1_S1_(ptr noundef nonnull align 8 dereferenceable(217) %0, ptr noundef nonnull align 8 dereferenceable(8) %1, ptr noundef nonnull align 8 dereferenceable(8) %2, ptr noundef nonnull align 8 dereferenceable(8) %3, ptr noundef nonnull align 8 dereferenceable(8) %4) unnamed_addr #5 align 2 {
  %6 = alloca ptr, align 8
  %7 = alloca ptr, align 8
  %8 = alloca ptr, align 8
  %9 = alloca ptr, align 8
  %10 = alloca ptr, align 8
  store ptr %0, ptr %6, align 8
  store ptr %1, ptr %7, align 8
  store ptr %2, ptr %8, align 8
  store ptr %3, ptr %9, align 8
  store ptr %4, ptr %10, align 8
  %11 = load ptr, ptr %6, align 8
  %12 = getelementptr inbounds %"class.Ipopt::PDPerturbationHandler", ptr %11, i32 0, i32 6
  %13 = load double, ptr %12, align 8
  %14 = load ptr, ptr %7, align 8
  store double %13, ptr %14, align 8
  %15 = getelementptr inbounds %"class.Ipopt::PDPerturbationHandler", ptr %11, i32 0, i32 7
  %16 = load double, ptr %15, align 8
  %17 = load ptr, ptr %8, align 8
  store double %16, ptr %17, align 8
  %18 = getelementptr inbounds %"class.Ipopt::PDPerturbationHandler", ptr %11, i32 0, i32 8
  %19 = load double, ptr %18, align 8
  %20 = load ptr, ptr %9, align 8
  store double %19, ptr %20, align 8
  %21 = getelementptr inbounds %"class.Ipopt::PDPerturbationHandler", ptr %11, i32 0, i32 9
  %22 = load double, ptr %21, align 8
  %23 = load ptr, ptr %10, align 8
  store double %22, ptr %23, align 8
  ret void
}