; Function Attrs: mustprogress nofree norecurse nosync nounwind willreturn memory(argmem: readwrite) uwtable
define void @_ZN5Ipopt21PDPerturbationHandler19CurrentPerturbationERdS1_S1_S1_(ptr nocapture noundef nonnull readonly align 8 dereferenceable(217) %0, ptr nocapture noundef nonnull writeonly align 8 dereferenceable(8) %1, ptr nocapture noundef nonnull writeonly align 8 dereferenceable(8) %2, ptr nocapture noundef nonnull writeonly align 8 dereferenceable(8) %3, ptr nocapture noundef nonnull writeonly align 8 dereferenceable(8) %4) unnamed_addr #6 align 2 {
  %6 = getelementptr inbounds i8, ptr %0, i64 88
  %7 = load double, ptr %6, align 8
  store double %7, ptr %1, align 8
  %8 = getelementptr inbounds i8, ptr %0, i64 96
  %9 = load double, ptr %8, align 8
  store double %9, ptr %2, align 8
  %10 = getelementptr inbounds i8, ptr %0, i64 104
  %11 = load double, ptr %10, align 8
  store double %11, ptr %3, align 8
  %12 = getelementptr inbounds i8, ptr %0, i64 112
  %13 = load double, ptr %12, align 8
  store double %13, ptr %4, align 8
  ret void
}